; Function Attrs: nounwind uwtable
define internal noundef i32 @elements_scalar(ptr noundef captures(none) %0, ptr noundef %1, i32 %2) #0 {
  %4 = load ptr, ptr %0, align 8
  %5 = getelementptr inbounds nuw i8, ptr %4, i64 56
  %6 = load i32, ptr %5, align 8
  %7 = icmp eq i32 %6, 0
  br i1 %7, label %8, label %14

8:                                                ; preds = %3
  %9 = tail call zeroext i1 @errstart_cold(i32 noundef 21, ptr noundef null) #16
  tail call void @llvm.assume(i1 %9)
  %10 = tail call i32 @errcode(i32 noundef 50856066) #15
  %11 = getelementptr inbounds nuw i8, ptr %0, i64 8
  %12 = load ptr, ptr %11, align 8
  %13 = tail call i32 (ptr, ...) @errmsg(ptr noundef nonnull @.str, ptr noundef %12) #15
  tail call void @errfinish(ptr noundef nonnull @.str.2, i32 noundef 2441, ptr noundef nonnull @__func__.elements_scalar) #15
  unreachable

14:                                               ; preds = %3
  %15 = getelementptr inbounds nuw i8, ptr %0, i64 49
  %16 = load i8, ptr %15, align 1, !range !4, !noundef !5
  %17 = trunc nuw i8 %16 to i1
  br i1 %17, label %18, label %20

18:                                               ; preds = %14
  %19 = getelementptr inbounds nuw i8, ptr %0, i64 56
  store ptr %1, ptr %19, align 8
  br label %20

20:                                               ; preds = %18, %14
  ret i32 0
}